target datalayout = "e-m:e-p270:32:32-p271:32:32-p272:64:64-i64:64-i128:128-f80:128-n8:16:32:64-S128"
target triple = "x86_64-pc-linux-gnu"

%struct.expert_field = type { i32, i32 }

@hf_pn_io_slot_nr = internal global i32 0, align 4
@hf_pn_io_subslot_nr = internal global i32 0, align 4
@hf_pn_io_tsn_stream_class = internal global i32 0, align 4
@hf_pn_io_tsn_fdb_command = internal global i32 0, align 4
@hf_pn_io_tsn_dst_add = internal global i32 0, align 4
@hf_pn_io_number_of_tsn_domain_sync_tree_entries = internal global i32 0, align 4
@ei_pn_io_block_version = internal global %struct.expert_field zeroinitializer, align 4
@.str.1317 = private unnamed_addr constant [41 x i8] c"Block version %u.%u not implemented yet!\00", align 1

; Function Attrs: nounwind uwtable
define internal i32 @dissect_TSNStreamPathDataReal_block(ptr noundef %0, i32 noundef %1, ptr noundef %2, ptr noundef %3, ptr noundef %4, ptr noundef %5, i8 noundef zeroext %6, i8 noundef zeroext %7, i32 noundef %8) #0 {
  %10 = alloca i32, align 4
  %11 = alloca ptr, align 8
  %12 = alloca i32, align 4
  %13 = alloca ptr, align 8
  %14 = alloca ptr, align 8
  %15 = alloca ptr, align 8
  %16 = alloca ptr, align 8
  %17 = alloca i8, align 1
  %18 = alloca i8, align 1
  %19 = alloca i32, align 4
  %20 = alloca i8, align 1
  %21 = alloca i16, align 2
  %22 = alloca [6 x i8], align 1
  %23 = alloca i16, align 2
  %24 = alloca i16, align 2
  %25 = alloca i16, align 2
  store ptr %0, ptr %11, align 8
  store i32 %1, ptr %12, align 4
  store ptr %2, ptr %13, align 8
  store ptr %3, ptr %14, align 8
  store ptr %4, ptr %15, align 8
  store ptr %5, ptr %16, align 8
  store i8 %6, ptr %17, align 1
  store i8 %7, ptr %18, align 1
  store i32 %8, ptr %19, align 4
  %26 = load i8, ptr %17, align 1
  %27 = zext i8 %26 to i32
  %28 = icmp ne i32 %27, 1
  br i1 %28, label %33, label %29

29:                                               ; preds = %9
  %30 = load i8, ptr %18, align 1
  %31 = zext i8 %30 to i32
  %32 = icmp ne i32 %31, 0
  br i1 %32, label %33, label %42

33:                                               ; preds = %29, %9
  %34 = load ptr, ptr %13, align 8
  %35 = load ptr, ptr %15, align 8
  %36 = load i8, ptr %17, align 1
  %37 = zext i8 %36 to i32
  %38 = load i8, ptr %18, align 1
  %39 = zext i8 %38 to i32
  %40 = call ptr (ptr, ptr, ptr, ptr, ...) @expert_add_info_format(ptr noundef %34, ptr noundef %35, ptr noundef @ei_pn_io_block_version, ptr noundef @.str.1317, i32 noundef %37, i32 noundef %39)
  %41 = load i32, ptr %12, align 4
  store i32 %41, ptr %10, align 4
  br label %128

42:                                               ; preds = %29
  %43 = load ptr, ptr %11, align 8
  %44 = load i32, ptr %12, align 4
  %45 = load ptr, ptr %13, align 8
  %46 = load ptr, ptr %14, align 8
  %47 = call i32 @dissect_pn_padding(ptr noundef %43, i32 noundef %44, ptr noundef %45, ptr noundef %46, i32 noundef 1)
  store i32 %47, ptr %12, align 4
  %48 = load i32, ptr %19, align 4
  %49 = icmp ne i32 %48, 0
  br i1 %49, label %58, label %50

50:                                               ; preds = %42
  %51 = load ptr, ptr %11, align 8
  %52 = load i32, ptr %12, align 4
  %53 = load ptr, ptr %13, align 8
  %54 = load ptr, ptr %14, align 8
  %55 = load ptr, ptr %16, align 8
  %56 = load i32, ptr @hf_pn_io_tsn_fdb_command, align 4
  %57 = call i32 @dissect_dcerpc_uint8(ptr noundef %51, i32 noundef %52, ptr noundef %53, ptr noundef %54, ptr noundef %55, i32 noundef %56, ptr noundef %20)
  store i32 %57, ptr %12, align 4
  br label %64

58:                                               ; preds = %42
  %59 = load ptr, ptr %11, align 8
  %60 = load i32, ptr %12, align 4
  %61 = load ptr, ptr %13, align 8
  %62 = load ptr, ptr %14, align 8
  %63 = call i32 @dissect_pn_padding(ptr noundef %59, i32 noundef %60, ptr noundef %61, ptr noundef %62, i32 noundef 1)
  store i32 %63, ptr %12, align 4
  br label %64

64:                                               ; preds = %58, %50
  %65 = load ptr, ptr %11, align 8
  %66 = load i32, ptr %12, align 4
  %67 = load ptr, ptr %13, align 8
  %68 = load ptr, ptr %14, align 8
  %69 = call i32 @dissect_pn_padding(ptr noundef %65, i32 noundef %66, ptr noundef %67, ptr noundef %68, i32 noundef 2)
  store i32 %69, ptr %12, align 4
  %70 = load ptr, ptr %11, align 8
  %71 = load i32, ptr %12, align 4
  %72 = load ptr, ptr %13, align 8
  %73 = load ptr, ptr %14, align 8
  %74 = load ptr, ptr %16, align 8
  %75 = load i32, ptr @hf_pn_io_number_of_tsn_domain_sync_tree_entries, align 4
  %76 = call i32 @dissect_dcerpc_uint16(ptr noundef %70, i32 noundef %71, ptr noundef %72, ptr noundef %73, ptr noundef %74, i32 noundef %75, ptr noundef %21)
  store i32 %76, ptr %12, align 4
  br label %77

77:                                               ; preds = %81, %64
  %78 = load i16, ptr %21, align 2
  %79 = zext i16 %78 to i32
  %80 = icmp sgt i32 %79, 0
  br i1 %80, label %81, label %126

81:                                               ; preds = %77
  %82 = load i16, ptr %21, align 2
  %83 = add i16 %82, -1
  store i16 %83, ptr %21, align 2
  %84 = load ptr, ptr %11, align 8
  %85 = load i32, ptr %12, align 4
  %86 = load ptr, ptr %13, align 8
  %87 = load ptr, ptr %14, align 8
  %88 = load i32, ptr @hf_pn_io_tsn_dst_add, align 4
  %89 = getelementptr inbounds [6 x i8], ptr %22, i64 0, i64 0
  %90 = call i32 @dissect_pn_mac(ptr noundef %84, i32 noundef %85, ptr noundef %86, ptr noundef %87, i32 noundef %88, ptr noundef %89)
  store i32 %90, ptr %12, align 4
  %91 = load ptr, ptr %11, align 8
  %92 = load i32, ptr %12, align 4
  %93 = load ptr, ptr %13, align 8
  %94 = load ptr, ptr %14, align 8
  %95 = load ptr, ptr %16, align 8
  %96 = load i32, ptr @hf_pn_io_tsn_stream_class, align 4
  %97 = call i32 @dissect_dcerpc_uint16(ptr noundef %91, i32 noundef %92, ptr noundef %93, ptr noundef %94, ptr noundef %95, i32 noundef %96, ptr noundef %23)
  store i32 %97, ptr %12, align 4
  %98 = load ptr, ptr %11, align 8
  %99 = load i32, ptr %12, align 4
  %100 = load ptr, ptr %13, align 8
  %101 = load ptr, ptr %14, align 8
  %102 = load ptr, ptr %16, align 8
  %103 = load i32, ptr @hf_pn_io_slot_nr, align 4
  %104 = call i32 @dissect_dcerpc_uint16(ptr noundef %98, i32 noundef %99, ptr noundef %100, ptr noundef %101, ptr noundef %102, i32 noundef %103, ptr noundef %24)
  store i32 %104, ptr %12, align 4
  %105 = load ptr, ptr %11, align 8
  %106 = load i32, ptr %12, align 4
  %107 = load ptr, ptr %13, align 8
  %108 = load ptr, ptr %14, align 8
  %109 = load ptr, ptr %16, align 8
  %110 = load i32, ptr @hf_pn_io_subslot_nr, align 4
  %111 = call i32 @dissect_dcerpc_uint16(ptr noundef %105, i32 noundef %106, ptr noundef %107, ptr noundef %108, ptr noundef %109, i32 noundef %110, ptr noundef %25)
  store i32 %111, ptr %12, align 4
  %112 = load ptr, ptr %11, align 8
  %113 = load i32, ptr %12, align 4
  %114 = load ptr, ptr %13, align 8
  %115 = load ptr, ptr %14, align 8
  %116 = load ptr, ptr %16, align 8
  %117 = load i32, ptr @hf_pn_io_slot_nr, align 4
  %118 = call i32 @dissect_dcerpc_uint16(ptr noundef %112, i32 noundef %113, ptr noundef %114, ptr noundef %115, ptr noundef %116, i32 noundef %117, ptr noundef %24)
  store i32 %118, ptr %12, align 4
  %119 = load ptr, ptr %11, align 8
  %120 = load i32, ptr %12, align 4
  %121 = load ptr, ptr %13, align 8
  %122 = load ptr, ptr %14, align 8
  %123 = load ptr, ptr %16, align 8
  %124 = load i32, ptr @hf_pn_io_subslot_nr, align 4
  %125 = call i32 @dissect_dcerpc_uint16(ptr noundef %119, i32 noundef %120, ptr noundef %121, ptr noundef %122, ptr noundef %123, i32 noundef %124, ptr noundef %25)
  store i32 %125, ptr %12, align 4
  br label %77, !llvm.loop !67

126:                                              ; preds = %77
  %127 = load i32, ptr %12, align 4
  store i32 %127, ptr %10, align 4
  br label %128

128:                                              ; preds = %126, %33
  %129 = load i32, ptr %10, align 4
  ret i32 %129
}