; Function Attrs: nounwind uwtable
define internal fastcc void @dissect_TSNStreamPathDataReal_block(ptr noundef %0, i32 noundef %1, ptr noundef %2, ptr noundef %3, ptr noundef %4, ptr noundef %5, i8 noundef zeroext %6, i8 noundef zeroext %7, i32 noundef range(i32 0, 2) %8) unnamed_addr #0 {
  %10 = alloca i8, align 1
  %11 = alloca i16, align 2
  %12 = alloca [6 x i8], align 1
  %13 = alloca i16, align 2
  %14 = alloca i16, align 2
  %15 = alloca i16, align 2
  %16 = icmp ne i8 %6, 1
  %17 = icmp ne i8 %7, 0
  %or.cond = or i1 %16, %17
  br i1 %or.cond, label %18, label %22

18:                                               ; preds = %9
  %19 = zext i8 %7 to i32
  %20 = zext i8 %6 to i32
  %21 = tail call ptr (ptr, ptr, ptr, ptr, ...) @expert_add_info_format(ptr noundef %2, ptr noundef %4, ptr noundef nonnull @ei_pn_io_block_version, ptr noundef nonnull @.str.1317, i32 noundef %20, i32 noundef %19) #11
  br label %.loopexit

22:                                               ; preds = %9
  %23 = tail call i32 @dissect_pn_padding(ptr noundef %0, i32 noundef %1, ptr noundef %2, ptr noundef %3, i32 noundef 1) #11
  %.not = icmp eq i32 %8, 0
  br i1 %.not, label %24, label %27

24:                                               ; preds = %22
  %25 = load i32, ptr @hf_pn_io_tsn_fdb_command, align 4
  %26 = call i32 @dissect_dcerpc_uint8(ptr noundef %0, i32 noundef %23, ptr noundef %2, ptr noundef %3, ptr noundef %5, i32 noundef %25, ptr noundef nonnull %10) #11
  br label %29

27:                                               ; preds = %22
  %28 = tail call i32 @dissect_pn_padding(ptr noundef %0, i32 noundef %23, ptr noundef %2, ptr noundef %3, i32 noundef 1) #11
  br label %29

29:                                               ; preds = %27, %24
  %.062 = phi i32 [ %28, %27 ], [ %26, %24 ]
  %30 = call i32 @dissect_pn_padding(ptr noundef %0, i32 noundef %.062, ptr noundef %2, ptr noundef %3, i32 noundef 2) #11
  %31 = load i32, ptr @hf_pn_io_number_of_tsn_domain_sync_tree_entries, align 4
  %32 = call i32 @dissect_dcerpc_uint16(ptr noundef %0, i32 noundef %30, ptr noundef %2, ptr noundef %3, ptr noundef %5, i32 noundef %31, ptr noundef nonnull %11) #11
  %33 = load i16, ptr %11, align 2
  %.not6364 = icmp eq i16 %33, 0
  br i1 %.not6364, label %.loopexit, label %.lr.ph

.lr.ph:                                           ; preds = %29, %.lr.ph
  %34 = phi i16 [ %48, %.lr.ph ], [ %33, %29 ]
  %.165 = phi i32 [ %47, %.lr.ph ], [ %32, %29 ]
  %35 = add i16 %34, -1
  store i16 %35, ptr %11, align 2
  %36 = load i32, ptr @hf_pn_io_tsn_dst_add, align 4
  %37 = call i32 @dissect_pn_mac(ptr noundef %0, i32 noundef %.165, ptr noundef %2, ptr noundef %3, i32 noundef %36, ptr noundef nonnull %12) #11
  %38 = load i32, ptr @hf_pn_io_tsn_stream_class, align 4
  %39 = call i32 @dissect_dcerpc_uint16(ptr noundef %0, i32 noundef %37, ptr noundef %2, ptr noundef %3, ptr noundef %5, i32 noundef %38, ptr noundef nonnull %13) #11
  %40 = load i32, ptr @hf_pn_io_slot_nr, align 4
  %41 = call i32 @dissect_dcerpc_uint16(ptr noundef %0, i32 noundef %39, ptr noundef %2, ptr noundef %3, ptr noundef %5, i32 noundef %40, ptr noundef nonnull %14) #11
  %42 = load i32, ptr @hf_pn_io_subslot_nr, align 4
  %43 = call i32 @dissect_dcerpc_uint16(ptr noundef %0, i32 noundef %41, ptr noundef %2, ptr noundef %3, ptr noundef %5, i32 noundef %42, ptr noundef nonnull %15) #11
  %44 = load i32, ptr @hf_pn_io_slot_nr, align 4
  %45 = call i32 @dissect_dcerpc_uint16(ptr noundef %0, i32 noundef %43, ptr noundef %2, ptr noundef %3, ptr noundef %5, i32 noundef %44, ptr noundef nonnull %14) #11
  %46 = load i32, ptr @hf_pn_io_subslot_nr, align 4
  %47 = call i32 @dissect_dcerpc_uint16(ptr noundef %0, i32 noundef %45, ptr noundef %2, ptr noundef %3, ptr noundef %5, i32 noundef %46, ptr noundef nonnull %15) #11
  %48 = load i16, ptr %11, align 2
  %.not63 = icmp eq i16 %48, 0
  br i1 %.not63, label %.loopexit, label %.lr.ph, !llvm.loop !75

.loopexit:                                        ; preds = %.lr.ph, %29, %18
  ret void
}